; ModuleID = '22/1070.c'
source_filename = "22/1070.c"
target datalayout = "e-m:e-p270:32:32-p271:32:32-p272:64:64-i64:64-f80:128-n8:16:32:64-S128"
target triple = "x86_64-pc-linux-gnu"

@.str = private unnamed_addr constant [3 x i8] c"No\00", align 1
@.str.1 = private unnamed_addr constant [3 x i8] c"%d\00", align 1

; Function Attrs: noinline nounwind uwtable
define dso_local i32 @main() #0 {
  %1 = alloca i32, align 4
  %2 = alloca [1000 x i8], align 16
  %3 = alloca [1000 x i32], align 16
  %4 = alloca i32, align 4
  %5 = alloca i32, align 4
  %6 = alloca i32, align 4
  %7 = alloca i32, align 4
  %8 = alloca i32, align 4
  %9 = alloca i32, align 4
  %10 = alloca i32, align 4
  store i32 0, i32* %1, align 4
  %11 = bitcast [1000 x i32]* %3 to i8*
  call void @llvm.memset.p0i8.i64(i8* align 16 %11, i8 0, i64 4000, i1 false)
  store i32 0, i32* %4, align 4
  store i32 0, i32* %5, align 4
  store i32 0, i32* %6, align 4
  %12 = getelementptr inbounds [1000 x i8], [1000 x i8]* %2, i64 0, i64 0
  %13 = call i32 (i8*, ...) bitcast (i32 (...)* @gets to i32 (i8*, ...)*)(i8* %12)
  br label %14

14:                                               ; preds = %51, %0
  %15 = load i32, i32* %4, align 4
  %16 = sext i32 %15 to i64
  %17 = getelementptr inbounds [1000 x i8], [1000 x i8]* %2, i64 0, i64 %16
  %18 = load i8, i8* %17, align 1
  %19 = sext i8 %18 to i32
  %20 = icmp sge i32 %19, 48
  br i1 %20, label %21, label %38

21:                                               ; preds = %14
  %22 = load i32, i32* %4, align 4
  %23 = sext i32 %22 to i64
  %24 = getelementptr inbounds [1000 x i8], [1000 x i8]* %2, i64 0, i64 %23
  %25 = load i8, i8* %24, align 1
  %26 = sext i8 %25 to i32
  %27 = icmp sle i32 %26, 57
  br i1 %27, label %28, label %38

28:                                               ; preds = %21
  store i32 0, i32* %8, align 4
  %29 = load i32, i32* %6, align 4
  %30 = mul nsw i32 10, %29
  %31 = load i32, i32* %4, align 4
  %32 = sext i32 %31 to i64
  %33 = getelementptr inbounds [1000 x i8], [1000 x i8]* %2, i64 0, i64 %32
  %34 = load i8, i8* %33, align 1
  %35 = sext i8 %34 to i32
  %36 = add nsw i32 %30, %35
  %37 = sub nsw i32 %36, 48
  store i32 %37, i32* %6, align 4
  br label %48

38:                                               ; preds = %21, %14
  %39 = load i32, i32* %8, align 4
  %40 = icmp eq i32 %39, 0
  br i1 %40, label %41, label %47

41:                                               ; preds = %38
  %42 = load i32, i32* %6, align 4
  %43 = load i32, i32* %5, align 4
  %44 = add nsw i32 %43, 1
  store i32 %44, i32* %5, align 4
  %45 = sext i32 %43 to i64
  %46 = getelementptr inbounds [1000 x i32], [1000 x i32]* %3, i64 0, i64 %45
  store i32 %42, i32* %46, align 4
  store i32 0, i32* %6, align 4
  br label %47

47:                                               ; preds = %41, %38
  br label %48

48:                                               ; preds = %47, %28
  %49 = load i32, i32* %4, align 4
  %50 = add nsw i32 %49, 1
  store i32 %50, i32* %4, align 4
  br label %51

51:                                               ; preds = %48
  %52 = load i32, i32* %4, align 4
  %53 = sub nsw i32 %52, 1
  %54 = sext i32 %53 to i64
  %55 = getelementptr inbounds [1000 x i8], [1000 x i8]* %2, i64 0, i64 %54
  %56 = load i8, i8* %55, align 1
  %57 = sext i8 %56 to i32
  %58 = icmp ne i32 %57, 0
  br i1 %58, label %14, label %59

59:                                               ; preds = %51
  store i32 0, i32* %4, align 4
  br label %60

60:                                               ; preds = %91, %59
  %61 = load i32, i32* %4, align 4
  %62 = load i32, i32* %5, align 4
  %63 = sub nsw i32 %62, 1
  %64 = icmp slt i32 %61, %63
  br i1 %64, label %65, label %94

65:                                               ; preds = %60
  %66 = load i32, i32* %4, align 4
  %67 = add nsw i32 %66, 1
  store i32 %67, i32* %9, align 4
  br label %68

68:                                               ; preds = %87, %65
  %69 = load i32, i32* %9, align 4
  %70 = load i32, i32* %5, align 4
  %71 = icmp slt i32 %69, %70
  br i1 %71, label %72, label %90

72:                                               ; preds = %68
  %73 = load i32, i32* %4, align 4
  %74 = sext i32 %73 to i64
  %75 = getelementptr inbounds [1000 x i32], [1000 x i32]* %3, i64 0, i64 %74
  %76 = load i32, i32* %75, align 4
  %77 = load i32, i32* %9, align 4
  %78 = sext i32 %77 to i64
  %79 = getelementptr inbounds [1000 x i32], [1000 x i32]* %3, i64 0, i64 %78
  %80 = load i32, i32* %79, align 4
  %81 = icmp eq i32 %76, %80
  br i1 %81, label %82, label %86

82:                                               ; preds = %72
  %83 = load i32, i32* %9, align 4
  %84 = sext i32 %83 to i64
  %85 = getelementptr inbounds [1000 x i32], [1000 x i32]* %3, i64 0, i64 %84
  store i32 0, i32* %85, align 4
  br label %86

86:                                               ; preds = %82, %72
  br label %87

87:                                               ; preds = %86
  %88 = load i32, i32* %9, align 4
  %89 = add nsw i32 %88, 1
  store i32 %89, i32* %9, align 4
  br label %68

90:                                               ; preds = %68
  br label %91

91:                                               ; preds = %90
  %92 = load i32, i32* %4, align 4
  %93 = add nsw i32 %92, 1
  store i32 %93, i32* %4, align 4
  br label %60

94:                                               ; preds = %60
  store i32 0, i32* %4, align 4
  br label %95

95:                                               ; preds = %137, %94
  %96 = load i32, i32* %4, align 4
  %97 = load i32, i32* %5, align 4
  %98 = icmp slt i32 %96, %97
  br i1 %98, label %99, label %140

99:                                               ; preds = %95
  %100 = load i32, i32* %4, align 4
  store i32 %100, i32* %10, align 4
  %101 = load i32, i32* %4, align 4
  store i32 %101, i32* %9, align 4
  br label %102

102:                                              ; preds = %133, %99
  %103 = load i32, i32* %9, align 4
  %104 = load i32, i32* %5, align 4
  %105 = icmp slt i32 %103, %104
  br i1 %105, label %106, label %136

106:                                              ; preds = %102
  %107 = load i32, i32* %10, align 4
  %108 = sext i32 %107 to i64
  %109 = getelementptr inbounds [1000 x i32], [1000 x i32]* %3, i64 0, i64 %108
  %110 = load i32, i32* %109, align 4
  %111 = load i32, i32* %9, align 4
  %112 = sext i32 %111 to i64
  %113 = getelementptr inbounds [1000 x i32], [1000 x i32]* %3, i64 0, i64 %112
  %114 = load i32, i32* %113, align 4
  %115 = icmp slt i32 %110, %114
  br i1 %115, label %116, label %132

116:                                              ; preds = %106
  %117 = load i32, i32* %10, align 4
  %118 = sext i32 %117 to i64
  %119 = getelementptr inbounds [1000 x i32], [1000 x i32]* %3, i64 0, i64 %118
  %120 = load i32, i32* %119, align 4
  store i32 %120, i32* %7, align 4
  %121 = load i32, i32* %9, align 4
  %122 = sext i32 %121 to i64
  %123 = getelementptr inbounds [1000 x i32], [1000 x i32]* %3, i64 0, i64 %122
  %124 = load i32, i32* %123, align 4
  %125 = load i32, i32* %10, align 4
  %126 = sext i32 %125 to i64
  %127 = getelementptr inbounds [1000 x i32], [1000 x i32]* %3, i64 0, i64 %126
  store i32 %124, i32* %127, align 4
  %128 = load i32, i32* %7, align 4
  %129 = load i32, i32* %9, align 4
  %130 = sext i32 %129 to i64
  %131 = getelementptr inbounds [1000 x i32], [1000 x i32]* %3, i64 0, i64 %130
  store i32 %128, i32* %131, align 4
  br label %132

132:                                              ; preds = %116, %106
  br label %133

133:                                              ; preds = %132
  %134 = load i32, i32* %9, align 4
  %135 = add nsw i32 %134, 1
  store i32 %135, i32* %9, align 4
  br label %102

136:                                              ; preds = %102
  br label %137

137:                                              ; preds = %136
  %138 = load i32, i32* %4, align 4
  %139 = add nsw i32 %138, 1
  store i32 %139, i32* %4, align 4
  br label %95

140:                                              ; preds = %95
  %141 = getelementptr inbounds [1000 x i32], [1000 x i32]* %3, i64 0, i64 1
  %142 = load i32, i32* %141, align 4
  %143 = icmp eq i32 %142, 0
  br i1 %143, label %144, label %146

144:                                              ; preds = %140
  %145 = call i32 (i8*, ...) @printf(i8* getelementptr inbounds ([3 x i8], [3 x i8]* @.str, i64 0, i64 0))
  br label %150

146:                                              ; preds = %140
  %147 = getelementptr inbounds [1000 x i32], [1000 x i32]* %3, i64 0, i64 1
  %148 = load i32, i32* %147, align 4
  %149 = call i32 (i8*, ...) @printf(i8* getelementptr inbounds ([3 x i8], [3 x i8]* @.str.1, i64 0, i64 0), i32 %148)
  br label %150

150:                                              ; preds = %146, %144
  ret i32 0
}

; Function Attrs: argmemonly nounwind willreturn
declare void @llvm.memset.p0i8.i64(i8* nocapture writeonly, i8, i64, i1 immarg) #1

declare dso_local i32 @gets(...) #2

declare dso_local i32 @printf(i8*, ...) #2


!llvm.module.flags = !{!0}
!llvm.ident = !{!1}

!0 = !{i32 1, !"wchar_size", i32 4}
!1 = !{!"clang version 10.0.0-4ubuntu1 "}
